target datalayout = "e-m:e-p270:32:32-p271:32:32-p272:64:64-i64:64-i128:128-f80:128-n8:16:32:64-S128"
target triple = "x86_64-unknown-linux-gnu"

%"class.llvh::SMLoc" = type { ptr }
%"class.hermes::irgen::ESTreeIRGen" = type { ptr, %"class.hermes::IRBuilder", %"class.hermes::IRInstrument", ptr, ptr, ptr, ptr, %"class.hermes::ScopedHashTable", %"class.std::shared_ptr", %"class.hermes::Identifier", %"class.hermes::Identifier", %"class.hermes::Identifier", ptr, ptr, %"class.llvh::DenseMap.9" }
%"class.hermes::IRBuilder" = type { ptr, %"class.llvh::ilist_iterator", ptr, %"class.llvh::SMLoc", ptr }
%"class.llvh::ilist_iterator" = type { ptr }
%"class.hermes::IRInstrument" = type { i8 }
%"class.hermes::ScopedHashTable" = type { %"class.llvh::DenseMap", ptr }
%"class.llvh::DenseMap" = type <{ ptr, i32, i32, i32, [4 x i8] }>
%"class.std::shared_ptr" = type { %"class.std::__shared_ptr" }
%"class.std::__shared_ptr" = type { ptr, %"class.std::__shared_count" }
%"class.std::__shared_count" = type { ptr }
%"class.hermes::Identifier" = type { ptr }
%"class.llvh::DenseMap.9" = type <{ ptr, i32, i32, i32, [4 x i8] }>
%"class.llvh::StringRef" = type { ptr, i64 }
%"class.llvh::ArrayRef" = type { ptr, i64 }
%"class.std::initializer_list" = type { ptr, i64 }

; Function Attrs: mustprogress nounwind uwtable
define linkonce_odr hidden noundef i64 @_ZNKSt16initializer_listIPN6hermes5ValueEE4sizeEv(ptr noundef nonnull align 8 dereferenceable(16) %this) #0 comdat align 2 {
entry:
  %this.addr = alloca ptr, align 8
  store ptr %this, ptr %this.addr, align 8
  %this1 = load ptr, ptr %this.addr, align 8
  %_M_len = getelementptr inbounds %"class.std::initializer_list", ptr %this1, i32 0, i32 1
  %0 = load i64, ptr %_M_len, align 8
  ret i64 %0
}

; Function Attrs: mustprogress nounwind uwtable
define linkonce_odr hidden noundef ptr @_ZNKSt16initializer_listIPN6hermes5ValueEE3endEv(ptr noundef nonnull align 8 dereferenceable(16) %this) #0 comdat align 2 {
entry:
  %this.addr = alloca ptr, align 8
  store ptr %this, ptr %this.addr, align 8
  %this1 = load ptr, ptr %this.addr, align 8
  %call = call noundef ptr @_ZNKSt16initializer_listIPN6hermes5ValueEE5beginEv(ptr noundef nonnull align 8 dereferenceable(16) %this1) #10
  %call2 = call noundef i64 @_ZNKSt16initializer_listIPN6hermes5ValueEE4sizeEv(ptr noundef nonnull align 8 dereferenceable(16) %this1) #10
  %add.ptr = getelementptr inbounds ptr, ptr %call, i64 %call2
  ret ptr %add.ptr
}

; Function Attrs: mustprogress nounwind uwtable
define linkonce_odr hidden noundef ptr @_ZNKSt16initializer_listIPN6hermes5ValueEE5beginEv(ptr noundef nonnull align 8 dereferenceable(16) %this) #0 comdat align 2 {
entry:
  %this.addr = alloca ptr, align 8
  store ptr %this, ptr %this.addr, align 8
  %this1 = load ptr, ptr %this.addr, align 8
  %_M_array = getelementptr inbounds %"class.std::initializer_list", ptr %this1, i32 0, i32 0
  %0 = load ptr, ptr %_M_array, align 8
  ret ptr %0
}

; Function Attrs: mustprogress nounwind uwtable
define hidden noundef ptr @_ZN6hermes5irgen11ESTreeIRGen14genBuiltinCallENS_13BuiltinMethod4EnumEN4llvh8ArrayRefIPNS_5ValueEEE(ptr noundef nonnull align 8 dereferenceable(200) %this, i8 noundef zeroext %builtinIndex, ptr %args.coerce0, i64 %args.coerce1) #0 align 2 {
entry:
  %args = alloca %"class.llvh::ArrayRef", align 8
  %this.addr = alloca ptr, align 8
  %builtinIndex.addr = alloca i8, align 1
  %agg.tmp = alloca %"class.llvh::ArrayRef", align 8
  %0 = getelementptr inbounds { ptr, i64 }, ptr %args, i32 0, i32 0
  store ptr %args.coerce0, ptr %0, align 8
  %1 = getelementptr inbounds { ptr, i64 }, ptr %args, i32 0, i32 1
  store i64 %args.coerce1, ptr %1, align 8
  store ptr %this, ptr %this.addr, align 8
  store i8 %builtinIndex, ptr %builtinIndex.addr, align 1
  %this1 = load ptr, ptr %this.addr, align 8
  %Builder = getelementptr inbounds %"class.hermes::irgen::ESTreeIRGen", ptr %this1, i32 0, i32 1
  %2 = load i8, ptr %builtinIndex.addr, align 1
  call void @llvm.memcpy.p0.p0.i64(ptr align 8 %agg.tmp, ptr align 8 %args, i64 16, i1 false)
  %3 = getelementptr inbounds { ptr, i64 }, ptr %agg.tmp, i32 0, i32 0
  %4 = load ptr, ptr %3, align 8
  %5 = getelementptr inbounds { ptr, i64 }, ptr %agg.tmp, i32 0, i32 1
  %6 = load i64, ptr %5, align 8
  %call = call noundef ptr @_ZN6hermes9IRBuilder21createCallBuiltinInstENS_13BuiltinMethod4EnumEN4llvh8ArrayRefIPNS_5ValueEEE(ptr noundef nonnull align 8 dereferenceable(40) %Builder, i8 noundef zeroext %2, ptr %4, i64 %6)
  %7 = icmp eq ptr %call, null
  br i1 %7, label %cast.end, label %cast.notnull

cast.notnull:                                     ; preds = %entry
  %add.ptr = getelementptr inbounds i8, ptr %call, i64 16
  br label %cast.end

cast.end:                                         ; preds = %cast.notnull, %entry
  %cast.result = phi ptr [ %add.ptr, %cast.notnull ], [ null, %entry ]
  ret ptr %cast.result
}

; Function Attrs: mustprogress nounwind uwtable
define linkonce_odr hidden void @_ZN4llvh8ArrayRefIPN6hermes5ValueEEC2ERKSt16initializer_listIS3_E(ptr noundef nonnull align 8 dereferenceable(16) %this, ptr noundef nonnull align 8 dereferenceable(16) %Vec) unnamed_addr #0 comdat align 2 {
entry:
  %this.addr = alloca ptr, align 8
  %Vec.addr = alloca ptr, align 8
  store ptr %this, ptr %this.addr, align 8
  store ptr %Vec, ptr %Vec.addr, align 8
  %this1 = load ptr, ptr %this.addr, align 8
  %Data = getelementptr inbounds %"class.llvh::ArrayRef", ptr %this1, i32 0, i32 0
  %0 = load ptr, ptr %Vec.addr, align 8
  %call = call noundef ptr @_ZNKSt16initializer_listIPN6hermes5ValueEE5beginEv(ptr noundef nonnull align 8 dereferenceable(16) %0) #10
  %1 = load ptr, ptr %Vec.addr, align 8
  %call2 = call noundef ptr @_ZNKSt16initializer_listIPN6hermes5ValueEE3endEv(ptr noundef nonnull align 8 dereferenceable(16) %1) #10
  %cmp = icmp eq ptr %call, %call2
  br i1 %cmp, label %cond.true, label %cond.false

cond.true:                                        ; preds = %entry
  br label %cond.end

cond.false:                                       ; preds = %entry
  %2 = load ptr, ptr %Vec.addr, align 8
  %call3 = call noundef ptr @_ZNKSt16initializer_listIPN6hermes5ValueEE5beginEv(ptr noundef nonnull align 8 dereferenceable(16) %2) #10
  br label %cond.end

cond.end:                                         ; preds = %cond.false, %cond.true
  %cond = phi ptr [ null, %cond.true ], [ %call3, %cond.false ]
  store ptr %cond, ptr %Data, align 8
  %Length = getelementptr inbounds %"class.llvh::ArrayRef", ptr %this1, i32 0, i32 1
  %3 = load ptr, ptr %Vec.addr, align 8
  %call4 = call noundef i64 @_ZNKSt16initializer_listIPN6hermes5ValueEE4sizeEv(ptr noundef nonnull align 8 dereferenceable(16) %3) #10
  store i64 %call4, ptr %Length, align 8
  ret void
}

; Function Attrs: mustprogress nounwind uwtable
define hidden void @_ZN6hermes5irgen11ESTreeIRGen16emitEnsureObjectEPNS_5ValueEN4llvh9StringRefE(ptr noundef nonnull align 8 dereferenceable(200) %this, ptr noundef %value, ptr %message.coerce0, i64 %message.coerce1) #0 align 2 {
entry:
  %message = alloca %"class.llvh::StringRef", align 8
  %this.addr = alloca ptr, align 8
  %value.addr = alloca ptr, align 8
  %agg.tmp = alloca %"class.llvh::ArrayRef", align 8
  %ref.tmp = alloca %"class.std::initializer_list", align 8
  %ref.tmp2 = alloca [2 x ptr], align 8
  %agg.tmp3 = alloca %"class.llvh::StringRef", align 8
  %0 = getelementptr inbounds { ptr, i64 }, ptr %message, i32 0, i32 0
  store ptr %message.coerce0, ptr %0, align 8
  %1 = getelementptr inbounds { ptr, i64 }, ptr %message, i32 0, i32 1
  store i64 %message.coerce1, ptr %1, align 8
  store ptr %this, ptr %this.addr, align 8
  store ptr %value, ptr %value.addr, align 8
  %this1 = load ptr, ptr %this.addr, align 8
  %arrayinit.begin = getelementptr inbounds [2 x ptr], ptr %ref.tmp2, i64 0, i64 0
  %2 = load ptr, ptr %value.addr, align 8
  store ptr %2, ptr %arrayinit.begin, align 8
  %arrayinit.element = getelementptr inbounds ptr, ptr %arrayinit.begin, i64 1
  %Builder = getelementptr inbounds %"class.hermes::irgen::ESTreeIRGen", ptr %this1, i32 0, i32 1
  call void @llvm.memcpy.p0.p0.i64(ptr align 8 %agg.tmp3, ptr align 8 %message, i64 16, i1 false)
  %3 = getelementptr inbounds { ptr, i64 }, ptr %agg.tmp3, i32 0, i32 0
  %4 = load ptr, ptr %3, align 8
  %5 = getelementptr inbounds { ptr, i64 }, ptr %agg.tmp3, i32 0, i32 1
  %6 = load i64, ptr %5, align 8
  %call = call noundef ptr @_ZN6hermes9IRBuilder16getLiteralStringEN4llvh9StringRefE(ptr noundef nonnull align 8 dereferenceable(40) %Builder, ptr %4, i64 %6)
  store ptr %call, ptr %arrayinit.element, align 8
  %_M_array = getelementptr inbounds %"class.std::initializer_list", ptr %ref.tmp, i32 0, i32 0
  %arraystart = getelementptr inbounds [2 x ptr], ptr %ref.tmp2, i64 0, i64 0
  store ptr %arraystart, ptr %_M_array, align 8
  %_M_len = getelementptr inbounds %"class.std::initializer_list", ptr %ref.tmp, i32 0, i32 1
  store i64 2, ptr %_M_len, align 8
  call void @_ZN4llvh8ArrayRefIPN6hermes5ValueEEC2ERKSt16initializer_listIS3_E(ptr noundef nonnull align 8 dereferenceable(16) %agg.tmp, ptr noundef nonnull align 8 dereferenceable(16) %ref.tmp)
  %7 = getelementptr inbounds { ptr, i64 }, ptr %agg.tmp, i32 0, i32 0
  %8 = load ptr, ptr %7, align 8
  %9 = getelementptr inbounds { ptr, i64 }, ptr %agg.tmp, i32 0, i32 1
  %10 = load i64, ptr %9, align 8
  %call4 = call noundef ptr @_ZN6hermes5irgen11ESTreeIRGen14genBuiltinCallENS_13BuiltinMethod4EnumEN4llvh8ArrayRefIPNS_5ValueEEE(ptr noundef nonnull align 8 dereferenceable(200) %this1, i8 noundef zeroext 40, ptr %8, i64 %10)
  ret void
}