; Function Attrs: mustprogress nounwind uwtable
define hidden void @_ZN6hermes5irgen11ESTreeIRGen16emitEnsureObjectEPNS_5ValueEN4llvh9StringRefE(ptr noundef nonnull align 8 dereferenceable(200) %this, ptr noundef %value, ptr %message.coerce0, i64 %message.coerce1) local_unnamed_addr #0 align 2 {
entry:
  %ref.tmp2 = alloca [2 x ptr], align 8
  store ptr %value, ptr %ref.tmp2, align 8
  %arrayinit.element = getelementptr inbounds i8, ptr %ref.tmp2, i64 8
  %Builder = getelementptr inbounds i8, ptr %this, i64 8
  %call = tail call noundef ptr @_ZN6hermes9IRBuilder16getLiteralStringEN4llvh9StringRefE(ptr noundef nonnull align 8 dereferenceable(40) %Builder, ptr %message.coerce0, i64 %message.coerce1) #15
  store ptr %call, ptr %arrayinit.element, align 8
  %call.i = call noundef ptr @_ZN6hermes9IRBuilder21createCallBuiltinInstENS_13BuiltinMethod4EnumEN4llvh8ArrayRefIPNS_5ValueEEE(ptr noundef nonnull align 8 dereferenceable(40) %Builder, i8 noundef zeroext 40, ptr nonnull %ref.tmp2, i64 2) #15
  ret void
}